
build/epmp.elf:     file format elf32-littleriscv


Disassembly of section .crt_section:

80000000 <_start>:
80000000:	00000097          	auipc	ra,0x0
80000004:	01008093          	addi	ra,ra,16 # 80000010 <trap>
80000008:	30509073          	csrw	mtvec,ra
8000000c:	00c0006f          	j	80000018 <test0>

80000010 <trap>:
80000010:	341f1073          	csrw	mepc,t5
80000014:	30200073          	mret

80000018 <test0>:
80000018:	00000e13          	li	t3,0
8000001c:	00000f17          	auipc	t5,0x0
80000020:	228f0f13          	addi	t5,t5,552 # 80000244 <fail>
80000024:	131212b7          	lui	t0,0x13121
80000028:	11028293          	addi	t0,t0,272 # 13121110 <_start-0x6cedeef0>
8000002c:	3a029073          	csrw	pmpcfg0,t0
80000030:	171612b7          	lui	t0,0x17161
80000034:	51428293          	addi	t0,t0,1300 # 17161514 <_start-0x68e9eaec>
80000038:	3a129073          	csrw	pmpcfg1,t0
8000003c:	939292b7          	lui	t0,0x93929
80000040:	19028293          	addi	t0,t0,400 # 93929190 <pass+0x13928f40>
80000044:	3a229073          	csrw	pmpcfg2,t0
80000048:	979692b7          	lui	t0,0x97969
8000004c:	59428293          	addi	t0,t0,1428 # 97969594 <pass+0x17969344>
80000050:	3a329073          	csrw	pmpcfg3,t0
80000054:	220002b7          	lui	t0,0x22000
80000058:	3b029073          	csrw	pmpaddr0,t0
8000005c:	220002b7          	lui	t0,0x22000
80000060:	00128293          	addi	t0,t0,1 # 22000001 <_start-0x5dffffff>
80000064:	3b129073          	csrw	pmpaddr1,t0
80000068:	220002b7          	lui	t0,0x22000
8000006c:	00228293          	addi	t0,t0,2 # 22000002 <_start-0x5dfffffe>
80000070:	3b229073          	csrw	pmpaddr2,t0
80000074:	220002b7          	lui	t0,0x22000
80000078:	00328293          	addi	t0,t0,3 # 22000003 <_start-0x5dfffffd>
8000007c:	3b329073          	csrw	pmpaddr3,t0
80000080:	220002b7          	lui	t0,0x22000
80000084:	00428293          	addi	t0,t0,4 # 22000004 <_start-0x5dfffffc>
80000088:	3b429073          	csrw	pmpaddr4,t0
8000008c:	220002b7          	lui	t0,0x22000
80000090:	00528293          	addi	t0,t0,5 # 22000005 <_start-0x5dfffffb>
80000094:	3b529073          	csrw	pmpaddr5,t0
80000098:	220002b7          	lui	t0,0x22000
8000009c:	00628293          	addi	t0,t0,6 # 22000006 <_start-0x5dfffffa>
800000a0:	3b629073          	csrw	pmpaddr6,t0
800000a4:	220002b7          	lui	t0,0x22000
800000a8:	00728293          	addi	t0,t0,7 # 22000007 <_start-0x5dfffff9>
800000ac:	3b729073          	csrw	pmpaddr7,t0
800000b0:	220002b7          	lui	t0,0x22000
800000b4:	00828293          	addi	t0,t0,8 # 22000008 <_start-0x5dfffff8>
800000b8:	3b829073          	csrw	pmpaddr8,t0
800000bc:	220002b7          	lui	t0,0x22000
800000c0:	00928293          	addi	t0,t0,9 # 22000009 <_start-0x5dfffff7>
800000c4:	3b929073          	csrw	pmpaddr9,t0
800000c8:	220002b7          	lui	t0,0x22000
800000cc:	00a28293          	addi	t0,t0,10 # 2200000a <_start-0x5dfffff6>
800000d0:	3ba29073          	csrw	pmpaddr10,t0
800000d4:	220002b7          	lui	t0,0x22000
800000d8:	00b28293          	addi	t0,t0,11 # 2200000b <_start-0x5dfffff5>
800000dc:	3bb29073          	csrw	pmpaddr11,t0
800000e0:	220002b7          	lui	t0,0x22000
800000e4:	00c28293          	addi	t0,t0,12 # 2200000c <_start-0x5dfffff4>
800000e8:	3bc29073          	csrw	pmpaddr12,t0
800000ec:	220002b7          	lui	t0,0x22000
800000f0:	00d28293          	addi	t0,t0,13 # 2200000d <_start-0x5dfffff3>
800000f4:	3bd29073          	csrw	pmpaddr13,t0
800000f8:	220002b7          	lui	t0,0x22000
800000fc:	00e28293          	addi	t0,t0,14 # 2200000e <_start-0x5dfffff2>
80000100:	3be29073          	csrw	pmpaddr14,t0
80000104:	220002b7          	lui	t0,0x22000
80000108:	00f28293          	addi	t0,t0,15 # 2200000f <_start-0x5dfffff1>
8000010c:	3bf29073          	csrw	pmpaddr15,t0

80000110 <test1>:
80000110:	00100e13          	li	t3,1
80000114:	00000f17          	auipc	t5,0x0
80000118:	130f0f13          	addi	t5,t5,304 # 80000244 <fail>
8000011c:	0780006f          	j	80000194 <test2>
80000120:	88000337          	lui	t1,0x88000
80000124:	00032383          	lw	t2,0(t1) # 88000000 <pass+0x7fffdb0>
80000128:	00732023          	sw	t2,0(t1)
8000012c:	00432383          	lw	t2,4(t1)
80000130:	00732223          	sw	t2,4(t1)
80000134:	00832383          	lw	t2,8(t1)
80000138:	00732423          	sw	t2,8(t1)
8000013c:	00c32383          	lw	t2,12(t1)
80000140:	00732623          	sw	t2,12(t1)
80000144:	01032383          	lw	t2,16(t1)
80000148:	00732823          	sw	t2,16(t1)
8000014c:	01432383          	lw	t2,20(t1)
80000150:	00732a23          	sw	t2,20(t1)
80000154:	01832383          	lw	t2,24(t1)
80000158:	00732c23          	sw	t2,24(t1)
8000015c:	01c32383          	lw	t2,28(t1)
80000160:	00732e23          	sw	t2,28(t1)
80000164:	02432383          	lw	t2,36(t1)
80000168:	02c32383          	lw	t2,44(t1)
8000016c:	03432383          	lw	t2,52(t1)
80000170:	03c32383          	lw	t2,60(t1)
80000174:	02732423          	sw	t2,40(t1)
80000178:	02732623          	sw	t2,44(t1)
8000017c:	02732c23          	sw	t2,56(t1)
80000180:	02732e23          	sw	t2,60(t1)
80000184:	00000f17          	auipc	t5,0x0
80000188:	010f0f13          	addi	t5,t5,16 # 80000194 <test2>
8000018c:	02032383          	lw	t2,32(t1)
80000190:	0b40006f          	j	80000244 <fail>

80000194 <test2>:
80000194:	00200e13          	li	t3,2
80000198:	00000f17          	auipc	t5,0x0
8000019c:	0acf0f13          	addi	t5,t5,172 # 80000244 <fail>
800001a0:	3900e073          	csrsi	0x390,1
800001a4:	88000337          	lui	t1,0x88000
800001a8:	0a80006f          	j	80000250 <pass>
800001ac:	00832383          	lw	t2,8(t1) # 88000008 <pass+0x7fffdb8>
800001b0:	01832383          	lw	t2,24(t1)
800001b4:	00732423          	sw	t2,8(t1)
800001b8:	00732c23          	sw	t2,24(t1)
800001bc:	02432383          	lw	t2,36(t1)
800001c0:	02c32383          	lw	t2,44(t1)
800001c4:	03432383          	lw	t2,52(t1)
800001c8:	03832383          	lw	t2,56(t1)
800001cc:	03c32383          	lw	t2,60(t1)
800001d0:	02732623          	sw	t2,44(t1)
800001d4:	00000f17          	auipc	t5,0x0
800001d8:	010f0f13          	addi	t5,t5,16 # 800001e4 <test3>
800001dc:	02732e23          	sw	t2,60(t1)
800001e0:	0640006f          	j	80000244 <fail>

800001e4 <test3>:
800001e4:	00300e13          	li	t3,3
800001e8:	00000f17          	auipc	t5,0x0
800001ec:	01cf0f13          	addi	t5,t5,28 # 80000204 <test4>
800001f0:	3900f073          	csrci	0x390,1
800001f4:	08000313          	li	t1,128
800001f8:	30033073          	csrc	mstatus,t1
800001fc:	30200073          	mret
80000200:	0440006f          	j	80000244 <fail>

80000204 <test4>:
80000204:	00400e13          	li	t3,4
80000208:	00000f17          	auipc	t5,0x0
8000020c:	03cf0f13          	addi	t5,t5,60 # 80000244 <fail>
80000210:	0400006f          	j	80000250 <pass>

80000214 <test5>:
80000214:	00500e13          	li	t3,5
80000218:	00000f17          	auipc	t5,0x0
8000021c:	02cf0f13          	addi	t5,t5,44 # 80000244 <fail>
80000220:	0300006f          	j	80000250 <pass>

80000224 <test6>:
80000224:	00600e13          	li	t3,6
80000228:	00000f17          	auipc	t5,0x0
8000022c:	01cf0f13          	addi	t5,t5,28 # 80000244 <fail>
80000230:	0200006f          	j	80000250 <pass>

80000234 <test7>:
80000234:	00700e13          	li	t3,7
80000238:	00000f17          	auipc	t5,0x0
8000023c:	00cf0f13          	addi	t5,t5,12 # 80000244 <fail>
80000240:	0100006f          	j	80000250 <pass>

80000244 <fail>:
80000244:	f0100137          	lui	sp,0xf0100
80000248:	f2410113          	addi	sp,sp,-220 # f00fff24 <pass+0x700ffcd4>
8000024c:	01c12023          	sw	t3,0(sp)

80000250 <pass>:
80000250:	f0100137          	lui	sp,0xf0100
80000254:	f2010113          	addi	sp,sp,-224 # f00fff20 <pass+0x700ffcd0>
80000258:	00012023          	sw	zero,0(sp)
